Certificate:
    Data:
        Version: 3 (0x2)
        Serial Number:
            61:8e:66:ef:25:f1:0a:0b:62:7c:fb:97:b5:db:21:70
        Signature Algorithm: sha256WithRSAEncryption
        Issuer: CN=ccdc.cybersec.uml.edu
        Validity
            Not Before: Jan 12 21:37:43 2023 GMT
            Not After : Dec 27 21:37:43 2025 GMT
        Subject: CN=ChangeMe
        Subject Public Key Info:
            Public Key Algorithm: rsaEncryption
                RSA Public-Key: (2048 bit)
                Modulus:
                    00:c9:71:6c:8a:8f:d3:fb:d4:c5:6a:57:7e:1c:c5:
                    d1:56:dd:cf:3e:c8:83:9d:21:86:12:28:65:d2:72:
                    8b:60:31:10:0c:46:94:6a:36:66:07:b2:81:9b:55:
                    d6:7f:da:7b:49:5c:ca:14:f7:a4:20:c1:8a:2a:ff:
                    86:f3:6d:cb:07:23:53:66:fb:19:63:bf:00:47:e2:
                    05:49:61:19:40:0c:60:cd:d8:6f:95:d7:fe:73:81:
                    9c:99:c8:26:24:a2:21:72:87:03:6e:89:ce:ba:60:
                    17:33:6a:ee:b5:40:4e:c0:1e:3b:98:55:af:ac:4a:
                    c9:eb:f4:7a:17:14:07:5d:91:0b:46:51:2e:b7:9e:
                    f6:ff:cf:e2:ad:6f:07:a7:f7:a8:88:a6:37:09:a4:
                    56:8f:31:e6:cd:80:d5:77:01:43:d9:e1:cf:11:55:
                    94:96:bb:62:14:06:75:60:bd:5a:f8:90:68:e6:a6:
                    d5:80:7b:b4:45:da:5b:30:83:05:b9:48:63:32:93:
                    f8:23:5a:f2:c4:9b:7d:cb:93:0d:a7:2d:e3:a8:b3:
                    af:9d:da:0e:11:23:67:9d:ec:ed:96:64:e5:b7:22:
                    8f:24:21:85:72:83:7a:b2:62:aa:91:cb:12:23:a0:
                    69:7f:77:f0:6d:98:f1:c4:76:7d:1f:63:d5:57:ae:
                    96:51
                Exponent: 65537 (0x10001)
        X509v3 extensions:
            X509v3 Basic Constraints: 
                CA:FALSE
            X509v3 Subject Key Identifier: 
                8B:F4:05:EA:68:B9:D2:50:9E:32:1C:F0:6D:C8:F0:35:CA:98:EF:E7
            X509v3 Authority Key Identifier: 
                keyid:B9:63:AB:10:5E:50:DF:74:9C:06:74:A1:C0:8E:08:CC:75:22:41:74
                DirName:/CN=ccdc.cybersec.uml.edu
                serial:16:45:D0:6D:A0:26:38:2D:37:E3:98:AF:4E:9B:4D:4B:40:61:1E:24

            X509v3 Extended Key Usage: 
                TLS Web Server Authentication
            X509v3 Key Usage: 
                Digital Signature, Key Encipherment
            X509v3 Subject Alternative Name: 
                DNS:ChangeMe
    Signature Algorithm: sha256WithRSAEncryption
         0e:3f:ac:bd:d8:76:f3:fb:72:73:1c:0e:89:88:7d:47:07:c6:
         24:27:d1:0a:33:6d:44:e4:45:37:4f:c3:6f:ca:b2:08:b7:2e:
         36:ec:ab:ef:39:ae:77:53:bb:53:0c:01:71:f3:d8:24:f3:88:
         8b:1c:1f:c5:61:14:b8:f1:aa:7b:8a:c2:07:90:07:ad:d0:97:
         15:0c:eb:c6:49:f1:b4:8e:25:d9:e0:24:f3:94:c1:17:cd:81:
         29:18:2d:32:2e:8f:ee:61:ef:36:1f:fb:af:15:79:81:1f:af:
         ee:43:f2:75:51:2b:be:02:63:22:f1:bd:90:57:78:cc:e8:73:
         f1:bb:c3:b6:5a:ab:88:74:d1:d6:7f:10:7d:90:a4:29:10:a5:
         0b:c4:02:23:db:ae:ee:7c:55:69:f4:dd:7b:95:60:e8:93:1d:
         c7:3e:61:e8:f4:f1:f1:34:7d:b3:09:fc:f7:ac:ec:91:65:00:
         bd:d2:85:a9:8d:8b:f2:d2:b9:d1:31:76:ac:f0:92:a4:38:ee:
         71:24:08:ef:fa:c3:f0:47:48:8a:fe:f7:f3:90:f5:9f:d4:89:
         1a:a3:a6:d2:9e:70:1a:e5:4a:fb:99:ae:ec:92:87:5d:89:f5:
         0b:a5:df:69:68:13:7f:01:2f:00:8c:ef:73:d4:ea:ef:88:44:
         c2:12:39:45
-----BEGIN CERTIFICATE-----
MIIDfzCCAmegAwIBAgIQYY5m7yXxCgtifPuXtdshcDANBgkqhkiG9w0BAQsFADAg
MR4wHAYDVQQDDBVjY2RjLmN5YmVyc2VjLnVtbC5lZHUwHhcNMjMwMTEyMjEzNzQz
WhcNMjUxMjI3MjEzNzQzWjATMREwDwYDVQQDDAhDaGFuZ2VNZTCCASIwDQYJKoZI
hvcNAQEBBQADggEPADCCAQoCggEBAMlxbIqP0/vUxWpXfhzF0Vbdzz7Ig50hhhIo
ZdJyi2AxEAxGlGo2ZgeygZtV1n/ae0lcyhT3pCDBiir/hvNtywcjU2b7GWO/AEfi
BUlhGUAMYM3Yb5XX/nOBnJnIJiSiIXKHA26JzrpgFzNq7rVATsAeO5hVr6xKyev0
ehcUB12RC0ZRLree9v/P4q1vB6f3qIimNwmkVo8x5s2A1XcBQ9nhzxFVlJa7YhQG
dWC9WviQaOam1YB7tEXaWzCDBblIYzKT+CNa8sSbfcuTDact46izr53aDhEjZ53s
7ZZk5bcijyQhhXKDerJiqpHLEiOgaX938G2Y8cR2fR9j1VeullECAwEAAaOBwTCB
vjAJBgNVHRMEAjAAMB0GA1UdDgQWBBSL9AXqaLnSUJ4yHPBtyPA1ypjv5zBbBgNV
HSMEVDBSgBS5Y6sQXlDfdJwGdKHAjgjMdSJBdKEkpCIwIDEeMBwGA1UEAwwVY2Nk
Yy5jeWJlcnNlYy51bWwuZWR1ghQWRdBtoCY4LTfjmK9Om01LQGEeJDATBgNVHSUE
DDAKBggrBgEFBQcDATALBgNVHQ8EBAMCBaAwEwYDVR0RBAwwCoIIQ2hhbmdlTWUw
DQYJKoZIhvcNAQELBQADggEBAA4/rL3YdvP7cnMcDomIfUcHxiQn0QozbUTkRTdP
w2/Ksgi3Ljbsq+85rndTu1MMAXHz2CTziIscH8VhFLjxqnuKwgeQB63QlxUM68ZJ
8bSOJdngJPOUwRfNgSkYLTIuj+5h7zYf+68VeYEfr+5D8nVRK74CYyLxvZBXeMzo
c/G7w7Zaq4h00dZ/EH2QpCkQpQvEAiPbru58VWn03XuVYOiTHcc+Yej08fE0fbMJ
/Pes7JFlAL3ShamNi/LSudExdqzwkqQ47nEkCO/6w/BHSIr+9/OQ9Z/UiRqjptKe
cBrlSvuZruySh12J9Qul32loE38BLwCM73PU6u+IRMISOUU=
-----END CERTIFICATE-----
